V/* line 17 */\u000ah1.navbar-brand {\u000a  font-size: 50.512px !important;\u000a  font-family: "Helvetica", sans-serif !important;\u000a  font-weight: 100;\u000a  color: #FFEB3B !important;\u000a  font-variant: small-caps;\u000a  letter-spacing: 4px;\u000a}\u000a
p1
.