V/* line 18 */\u000ahtml, body {\u000a  height: 100%;\u000a  margin: 0;\u000a  padding: 0;\u000a}\u000a\u000a/* line 22 */\u000a#map {\u000a  height: 100%;\u000a}\u000a\u000a/* line 24 */\u000a.navbar {\u000a  margin-bottom: 0px;\u000a}\u000a\u000a/* line 26 */\u000a#div_right {\u000a  height: 100%;\u000a  overflow: auto;\u000a}\u000a
p1
.